; ModuleID = 'missing_parts.cpp'
source_filename = "missing_parts.cpp"
target datalayout = "e-m:e-i8:8:32-i16:16:32-i64:64-i128:128-n32:64-S128"
target triple = "aarch64-unknown-linux-gnu"

module asm ".globl _ZSt21ios_base_library_initv"

%"class.std::basic_ostream" = type { ptr, %"class.std::basic_ios" }
%"class.std::basic_ios" = type { %"class.std::ios_base", ptr, i8, i8, ptr, ptr, ptr, ptr }
%"class.std::ios_base" = type { ptr, i64, i64, i32, i32, i32, ptr, %"struct.std::ios_base::_Words", [8 x %"struct.std::ios_base::_Words"], i32, ptr, %"class.std::locale" }
%"struct.std::ios_base::_Words" = type { ptr, i64 }
%"class.std::locale" = type { ptr }
%class.Testclass = type { i32, i32, i32, float }

$_ZN9TestclassC2Eiiif = comdat any

@_ZSt4cout = external global %"class.std::basic_ostream", align 8
@.str = private unnamed_addr constant [2 x i8] c"/\00", align 1
@.str.1 = private unnamed_addr constant [18 x i8] c"Sink found item: \00", align 1
@.str.2 = private unnamed_addr constant [3 x i8] c"%s\00", align 1
@.str.3 = private unnamed_addr constant [6 x i8] c"hello\00", align 1
@.str.4 = private unnamed_addr constant [3 x i8] c"%x\00", align 1

; Function Attrs: mustprogress noinline optnone sspstrong uwtable
define i64 @sum(i64 noundef %0, i64 noundef %1) #0 {
  %3 = alloca i64, align 8
  %4 = alloca i64, align 8
  store i64 %0, ptr %3, align 8
  store i64 %1, ptr %4, align 8
  %5 = load i64, ptr %3, align 8
  %6 = call noundef nonnull align 8 dereferenceable(8) ptr @_ZNSolsEl(ptr noundef nonnull align 8 dereferenceable(8) @_ZSt4cout, i64 noundef %5)
  %7 = call noundef nonnull align 8 dereferenceable(8) ptr @_ZStlsISt11char_traitsIcEERSt13basic_ostreamIcT_ES5_PKc(ptr noundef nonnull align 8 dereferenceable(8) %6, ptr noundef @.str)
  %8 = load i64, ptr %4, align 8
  %9 = call noundef nonnull align 8 dereferenceable(8) ptr @_ZNSolsEl(ptr noundef nonnull align 8 dereferenceable(8) %7, i64 noundef %8)
  %10 = call noundef nonnull align 8 dereferenceable(8) ptr @_ZNSolsEPFRSoS_E(ptr noundef nonnull align 8 dereferenceable(8) %9, ptr noundef @_ZSt4endlIcSt11char_traitsIcEERSt13basic_ostreamIT_T0_ES6_)
  %11 = load i64, ptr %3, align 8
  %12 = load i64, ptr %4, align 8
  %13 = add i64 %11, %12
  ret i64 %13
}

declare noundef nonnull align 8 dereferenceable(8) ptr @_ZStlsISt11char_traitsIcEERSt13basic_ostreamIcT_ES5_PKc(ptr noundef nonnull align 8 dereferenceable(8), ptr noundef) #1

declare noundef nonnull align 8 dereferenceable(8) ptr @_ZNSolsEl(ptr noundef nonnull align 8 dereferenceable(8), i64 noundef) #1

declare noundef nonnull align 8 dereferenceable(8) ptr @_ZNSolsEPFRSoS_E(ptr noundef nonnull align 8 dereferenceable(8), ptr noundef) #1

declare noundef nonnull align 8 dereferenceable(8) ptr @_ZSt4endlIcSt11char_traitsIcEERSt13basic_ostreamIT_T0_ES6_(ptr noundef nonnull align 8 dereferenceable(8)) #1

; Function Attrs: mustprogress noinline nounwind optnone sspstrong uwtable
define i64 @mul(i64 noundef %0, i64 noundef %1) #2 {
  %3 = alloca i64, align 8
  %4 = alloca i64, align 8
  store i64 %0, ptr %3, align 8
  store i64 %1, ptr %4, align 8
  %5 = load i64, ptr %3, align 8
  %6 = load i64, ptr %4, align 8
  %7 = mul i64 %5, %6
  ret i64 %7
}

; Function Attrs: mustprogress noinline optnone sspstrong uwtable
define void @sink(i64 noundef %0) #0 {
  %2 = alloca i64, align 8
  store i64 %0, ptr %2, align 8
  %3 = call noundef nonnull align 8 dereferenceable(8) ptr @_ZStlsISt11char_traitsIcEERSt13basic_ostreamIcT_ES5_PKc(ptr noundef nonnull align 8 dereferenceable(8) @_ZSt4cout, ptr noundef @.str.1)
  %4 = load i64, ptr %2, align 8
  %5 = call noundef nonnull align 8 dereferenceable(8) ptr @_ZNSolsEl(ptr noundef nonnull align 8 dereferenceable(8) %3, i64 noundef %4)
  %6 = call noundef nonnull align 8 dereferenceable(8) ptr @_ZNSolsEPFRSoS_E(ptr noundef nonnull align 8 dereferenceable(8) %5, ptr noundef @_ZSt4endlIcSt11char_traitsIcEERSt13basic_ostreamIT_T0_ES6_)
  ret void
}

; Function Attrs: mustprogress noinline optnone sspstrong uwtable
define void @test(ptr noundef %0) #0 {
  %2 = alloca ptr, align 8
  store ptr %0, ptr %2, align 8
  %3 = load ptr, ptr %2, align 8
  %4 = call i32 (ptr, ...) @printf(ptr noundef @.str.2, ptr noundef %3)
  ret void
}

declare i32 @printf(ptr noundef, ...) #1

; Function Attrs: mustprogress noinline optnone sspstrong uwtable
define void @second() #0 {
  call void @test(ptr noundef @.str.3)
  ret void
}

; Function Attrs: mustprogress noinline nounwind optnone sspstrong uwtable
define i64 @dummy() #2 {
  ret i64 3
}

; Function Attrs: mustprogress noinline optnone sspstrong uwtable
define void @takePtr(ptr noundef %0) #0 {
  %2 = alloca ptr, align 8
  store ptr %0, ptr %2, align 8
  %3 = load ptr, ptr %2, align 8
  %4 = call i32 (ptr, ...) @printf(ptr noundef @.str.4, ptr noundef %3)
  ret void
}

; Function Attrs: mustprogress noinline optnone sspstrong uwtable
define [2 x i64] @getInt() #0 {
  %1 = alloca %class.Testclass, align 4
  call void @_ZN9TestclassC2Eiiif(ptr noundef nonnull align 4 dereferenceable(16) %1, i32 noundef 1, i32 noundef 2, i32 noundef 3, float noundef 0x3FC99999A0000000)
  %2 = load [2 x i64], ptr %1, align 4
  ret [2 x i64] %2
}

; Function Attrs: mustprogress noinline nounwind optnone sspstrong uwtable
define linkonce_odr void @_ZN9TestclassC2Eiiif(ptr noundef nonnull align 4 dereferenceable(16) %0, i32 noundef %1, i32 noundef %2, i32 noundef %3, float noundef %4) unnamed_addr #2 comdat align 2 {
  %6 = alloca ptr, align 8
  %7 = alloca i32, align 4
  %8 = alloca i32, align 4
  %9 = alloca i32, align 4
  %10 = alloca float, align 4
  store ptr %0, ptr %6, align 8
  store i32 %1, ptr %7, align 4
  store i32 %2, ptr %8, align 4
  store i32 %3, ptr %9, align 4
  store float %4, ptr %10, align 4
  %11 = load ptr, ptr %6, align 8
  %12 = getelementptr inbounds %class.Testclass, ptr %11, i32 0, i32 0
  %13 = load i32, ptr %7, align 4
  store i32 %13, ptr %12, align 4
  %14 = getelementptr inbounds %class.Testclass, ptr %11, i32 0, i32 1
  %15 = load i32, ptr %8, align 4
  store i32 %15, ptr %14, align 4
  %16 = getelementptr inbounds %class.Testclass, ptr %11, i32 0, i32 2
  %17 = load i32, ptr %9, align 4
  store i32 %17, ptr %16, align 4
  %18 = getelementptr inbounds %class.Testclass, ptr %11, i32 0, i32 3
  %19 = load float, ptr %10, align 4
  store float %19, ptr %18, align 4
  ret void
}

; Function Attrs: mustprogress noinline optnone sspstrong uwtable
define void @createPtr() #0 {
  %1 = alloca %class.Testclass, align 4
  %2 = alloca ptr, align 8
  %3 = call [2 x i64] @getInt()
  store [2 x i64] %3, ptr %1, align 4
  store ptr %1, ptr %2, align 8
  %4 = load ptr, ptr %2, align 8
  call void @takePtr(ptr noundef %4)
  ret void
}

attributes #0 = { mustprogress noinline optnone sspstrong uwtable "frame-pointer"="non-leaf" "no-trapping-math"="true" "stack-protector-buffer-size"="4" "target-cpu"="generic" "target-features"="+fp-armv8,+neon,+outline-atomics,+v8a,-fmv" }
attributes #1 = { "frame-pointer"="non-leaf" "no-trapping-math"="true" "stack-protector-buffer-size"="4" "target-cpu"="generic" "target-features"="+fp-armv8,+neon,+outline-atomics,+v8a,-fmv" }
attributes #2 = { mustprogress noinline nounwind optnone sspstrong uwtable "frame-pointer"="non-leaf" "no-trapping-math"="true" "stack-protector-buffer-size"="4" "target-cpu"="generic" "target-features"="+fp-armv8,+neon,+outline-atomics,+v8a,-fmv" }

!llvm.module.flags = !{!0, !1, !2, !3}
!llvm.ident = !{!4}

!0 = !{i32 1, !"wchar_size", i32 4}
!1 = !{i32 8, !"PIC Level", i32 2}
!2 = !{i32 7, !"uwtable", i32 2}
!3 = !{i32 7, !"frame-pointer", i32 1}
!4 = !{!"clang version 18.1.7"}
